; Function Attrs: mustprogress uwtable
define internal fastcc void @"_ZNO8pybind116detail15argument_loaderIJRKNS_6objectEEE4callINS_3strENS0_9void_typeERZ25test_submodule_gil_scopedRNS_7module_EE4$_16EENSt9enable_ifIXntsr3std7is_voidIT_EE5valueESE_E4typeEOT1_"(ptr dead_on_unwind noalias writable align 8 %0, ptr noundef nonnull align 8 dereferenceable(8) %1) unnamed_addr #1 align 2 personality ptr @__gxx_personality_v0 {
  %3 = alloca %"class.pybind11::gil_scoped_release", align 8
  %4 = alloca %"class.pybind11::gil_scoped_acquire", align 8
  %5 = alloca %"class.pybind11::gil_scoped_acquire", align 8
  call void @llvm.lifetime.start.p0(i64 16, ptr nonnull %3), !noalias !874
  call void @llvm.lifetime.start.p0(i64 16, ptr nonnull %4), !noalias !874
  call void @llvm.lifetime.start.p0(i64 16, ptr nonnull %5), !noalias !874
  %6 = getelementptr inbounds i8, ptr %3, i64 8
  store i8 0, ptr %6, align 8, !noalias !877
  %7 = getelementptr inbounds i8, ptr %3, i64 9
  store i8 1, ptr %7, align 1, !noalias !877
  %8 = tail call noundef nonnull align 8 dereferenceable(472) ptr @_ZN8pybind116detail13get_internalsEv(), !noalias !877
  %9 = tail call ptr @PyEval_SaveThread(), !noalias !877
  store ptr %9, ptr %3, align 8, !noalias !877
  invoke void @_ZN8pybind1118gil_scoped_acquireC2Ev(ptr noundef nonnull align 8 dereferenceable(10) %4)
          to label %10 unwind label %61, !noalias !877

10:                                               ; preds = %2
  invoke void @_ZN8pybind1118gil_scoped_acquireC2Ev(ptr noundef nonnull align 8 dereferenceable(10) %5)
          to label %11 unwind label %63, !noalias !877

11:                                               ; preds = %10
  invoke void @_ZN8pybind113strC2ERKNS_6objectE(ptr noundef nonnull align 8 dereferenceable(8) %0, ptr noundef nonnull align 8 dereferenceable(8) %1)
          to label %12 unwind label %65

12:                                               ; preds = %11
  %13 = load ptr, ptr %5, align 8, !noalias !877
  %14 = getelementptr inbounds i8, ptr %13, i64 160
  %15 = load i32, ptr %14, align 8
  %16 = add nsw i32 %15, -1
  store i32 %16, ptr %14, align 8
  %17 = icmp eq i32 %16, 0
  br i1 %17, label %18, label %_ZN8pybind1118gil_scoped_acquire7dec_refEv.exit.i.i.i

18:                                               ; preds = %12
  invoke void @PyThreadState_Clear(ptr noundef nonnull %13)
          to label %.noexc.i.i.i unwind label %32

.noexc.i.i.i:                                     ; preds = %18
  %19 = getelementptr inbounds i8, ptr %5, i64 9
  %20 = load i8, ptr %19, align 1, !noalias !877
  %21 = and i8 %20, 1
  %.not.i.i.i.i = icmp eq i8 %21, 0
  br i1 %.not.i.i.i.i, label %.noexc1.i.i.i, label %22

22:                                               ; preds = %.noexc.i.i.i
  invoke void @PyThreadState_DeleteCurrent()
          to label %.noexc1.i.i.i unwind label %32

.noexc1.i.i.i:                                    ; preds = %22, %.noexc.i.i.i
  %23 = invoke noundef nonnull align 8 dereferenceable(472) ptr @_ZN8pybind116detail13get_internalsEv() #25
          to label %.noexc2.i.i.i unwind label %32

.noexc2.i.i.i:                                    ; preds = %.noexc1.i.i.i
  %24 = getelementptr inbounds i8, ptr %23, i64 456
  %25 = load ptr, ptr %24, align 8
  %26 = invoke i32 @PyThread_tss_set(ptr noundef %25, ptr noundef null)
          to label %_ZN8pybind1118gil_scoped_acquire7dec_refEv.exit.thread.i.i.i unwind label %32

_ZN8pybind1118gil_scoped_acquire7dec_refEv.exit.thread.i.i.i: ; preds = %.noexc2.i.i.i
  %27 = getelementptr inbounds i8, ptr %5, i64 8
  store i8 0, ptr %27, align 8, !noalias !877
  br label %_ZN8pybind1118gil_scoped_acquireD2Ev.exit.i.i

_ZN8pybind1118gil_scoped_acquire7dec_refEv.exit.i.i.i: ; preds = %12
  %.phi.trans.insert.i.i.i = getelementptr inbounds i8, ptr %5, i64 8
  %.pre.i.i.i = load i8, ptr %.phi.trans.insert.i.i.i, align 8, !noalias !877
  %28 = and i8 %.pre.i.i.i, 1
  %29 = icmp eq i8 %28, 0
  br i1 %29, label %_ZN8pybind1118gil_scoped_acquireD2Ev.exit.i.i, label %30

30:                                               ; preds = %_ZN8pybind1118gil_scoped_acquire7dec_refEv.exit.i.i.i
  %31 = invoke ptr @PyEval_SaveThread()
          to label %_ZN8pybind1118gil_scoped_acquireD2Ev.exit.i.i unwind label %32

32:                                               ; preds = %30, %.noexc2.i.i.i, %.noexc1.i.i.i, %22, %18
  %33 = landingpad { ptr, i32 }
          catch ptr null
  %34 = extractvalue { ptr, i32 } %33, 0
  call void @__clang_call_terminate(ptr %34) #24
  unreachable

_ZN8pybind1118gil_scoped_acquireD2Ev.exit.i.i:    ; preds = %30, %_ZN8pybind1118gil_scoped_acquire7dec_refEv.exit.i.i.i, %_ZN8pybind1118gil_scoped_acquire7dec_refEv.exit.thread.i.i.i
  %35 = load ptr, ptr %4, align 8, !noalias !877
  %36 = getelementptr inbounds i8, ptr %35, i64 160
  %37 = load i32, ptr %36, align 8
  %38 = add nsw i32 %37, -1
  store i32 %38, ptr %36, align 8
  %39 = icmp eq i32 %38, 0
  br i1 %39, label %40, label %_ZN8pybind1118gil_scoped_acquire7dec_refEv.exit.i6.i.i

40:                                               ; preds = %_ZN8pybind1118gil_scoped_acquireD2Ev.exit.i.i
  invoke void @PyThreadState_Clear(ptr noundef nonnull %35)
          to label %.noexc.i9.i.i unwind label %54

.noexc.i9.i.i:                                    ; preds = %40
  %41 = getelementptr inbounds i8, ptr %4, i64 9
  %42 = load i8, ptr %41, align 1, !noalias !877
  %43 = and i8 %42, 1
  %.not.i.i10.i.i = icmp eq i8 %43, 0
  br i1 %.not.i.i10.i.i, label %.noexc1.i11.i.i, label %44

44:                                               ; preds = %.noexc.i9.i.i
  invoke void @PyThreadState_DeleteCurrent()
          to label %.noexc1.i11.i.i unwind label %54

.noexc1.i11.i.i:                                  ; preds = %44, %.noexc.i9.i.i
  %45 = invoke noundef nonnull align 8 dereferenceable(472) ptr @_ZN8pybind116detail13get_internalsEv() #25
          to label %.noexc2.i12.i.i unwind label %54

.noexc2.i12.i.i:                                  ; preds = %.noexc1.i11.i.i
  %46 = getelementptr inbounds i8, ptr %45, i64 456
  %47 = load ptr, ptr %46, align 8
  %48 = invoke i32 @PyThread_tss_set(ptr noundef %47, ptr noundef null)
          to label %_ZN8pybind1118gil_scoped_acquire7dec_refEv.exit.thread.i13.i.i unwind label %54

_ZN8pybind1118gil_scoped_acquire7dec_refEv.exit.thread.i13.i.i: ; preds = %.noexc2.i12.i.i
  %49 = getelementptr inbounds i8, ptr %4, i64 8
  store i8 0, ptr %49, align 8, !noalias !877
  br label %_ZN8pybind1118gil_scoped_acquireD2Ev.exit14.i.i

_ZN8pybind1118gil_scoped_acquire7dec_refEv.exit.i6.i.i: ; preds = %_ZN8pybind1118gil_scoped_acquireD2Ev.exit.i.i
  %.phi.trans.insert.i7.i.i = getelementptr inbounds i8, ptr %4, i64 8
  %.pre.i8.i.i = load i8, ptr %.phi.trans.insert.i7.i.i, align 8, !noalias !877
  %50 = and i8 %.pre.i8.i.i, 1
  %51 = icmp eq i8 %50, 0
  br i1 %51, label %_ZN8pybind1118gil_scoped_acquireD2Ev.exit14.i.i, label %52

52:                                               ; preds = %_ZN8pybind1118gil_scoped_acquire7dec_refEv.exit.i6.i.i
  %53 = invoke ptr @PyEval_SaveThread()
          to label %_ZN8pybind1118gil_scoped_acquireD2Ev.exit14.i.i unwind label %54

54:                                               ; preds = %52, %.noexc2.i12.i.i, %.noexc1.i11.i.i, %44, %40
  %55 = landingpad { ptr, i32 }
          catch ptr null
  %56 = extractvalue { ptr, i32 } %55, 0
  call void @__clang_call_terminate(ptr %56) #24
  unreachable

_ZN8pybind1118gil_scoped_acquireD2Ev.exit14.i.i:  ; preds = %52, %_ZN8pybind1118gil_scoped_acquire7dec_refEv.exit.i6.i.i, %_ZN8pybind1118gil_scoped_acquire7dec_refEv.exit.thread.i13.i.i
  %.not.i.i.i = icmp eq ptr %9, null
  br i1 %.not.i.i.i, label %"_ZNO8pybind116detail15argument_loaderIJRKNS_6objectEEE9call_implINS_3strERZ25test_submodule_gil_scopedRNS_7module_EE4$_16JLm0EENS0_9void_typeEEET_OT0_St16integer_sequenceImJXspT1_EEEOT2_.exit", label %57

57:                                               ; preds = %_ZN8pybind1118gil_scoped_acquireD2Ev.exit14.i.i
  invoke void @PyEval_RestoreThread(ptr noundef nonnull %9)
          to label %"_ZNO8pybind116detail15argument_loaderIJRKNS_6objectEEE9call_implINS_3strERZ25test_submodule_gil_scopedRNS_7module_EE4$_16JLm0EENS0_9void_typeEEET_OT0_St16integer_sequenceImJXspT1_EEEOT2_.exit" unwind label %58

58:                                               ; preds = %57
  %59 = landingpad { ptr, i32 }
          catch ptr null
  %60 = extractvalue { ptr, i32 } %59, 0
  call void @__clang_call_terminate(ptr %60) #24
  unreachable

61:                                               ; preds = %2
  %62 = landingpad { ptr, i32 }
          cleanup
  br label %68

63:                                               ; preds = %10
  %64 = landingpad { ptr, i32 }
          cleanup
  br label %67

65:                                               ; preds = %11
  %66 = landingpad { ptr, i32 }
          cleanup
  call void @_ZN8pybind1118gil_scoped_acquireD2Ev(ptr noundef nonnull align 8 dereferenceable(10) %5) #23
  br label %67

67:                                               ; preds = %65, %63
  %.pn.i.i = phi { ptr, i32 } [ %66, %65 ], [ %64, %63 ]
  call void @_ZN8pybind1118gil_scoped_acquireD2Ev(ptr noundef nonnull align 8 dereferenceable(10) %4) #23
  br label %68

68:                                               ; preds = %67, %61
  %.pn.pn.i.i = phi { ptr, i32 } [ %.pn.i.i, %67 ], [ %62, %61 ]
  call void @_ZN8pybind1118gil_scoped_releaseD2Ev(ptr noundef nonnull align 8 dereferenceable(10) %3) #23
  resume { ptr, i32 } %.pn.pn.i.i

"_ZNO8pybind116detail15argument_loaderIJRKNS_6objectEEE9call_implINS_3strERZ25test_submodule_gil_scopedRNS_7module_EE4$_16JLm0EENS0_9void_typeEEET_OT0_St16integer_sequenceImJXspT1_EEEOT2_.exit": ; preds = %_ZN8pybind1118gil_scoped_acquireD2Ev.exit14.i.i, %57
  call void @llvm.lifetime.end.p0(i64 16, ptr nonnull %3), !noalias !874
  call void @llvm.lifetime.end.p0(i64 16, ptr nonnull %4), !noalias !874
  call void @llvm.lifetime.end.p0(i64 16, ptr nonnull %5), !noalias !874
  ret void
}